target datalayout = "e-m:e-p270:32:32-p271:32:32-p272:64:64-i64:64-i128:128-f80:128-n8:16:32:64-S128"
target triple = "x86_64-pc-linux-gnu"

%"class.std::__1::locale::facet" = type { %"class.std::__1::__shared_count" }
%"class.std::__1::__shared_count" = type { ptr, i64 }
%"class.std::__1::codecvt.37" = type { %"class.std::__1::locale::facet", ptr }
%"class.std::__1::__codecvt_utf8" = type <{ %"class.std::__1::codecvt.37", i64, i32, [4 x i8] }>

; Function Attrs: mustprogress uwtable
define dso_local noundef i32 @_ZNKSt3__114__codecvt_utf8IwE6do_outER11__mbstate_tPKwS5_RS5_PcS7_RS7_(ptr noundef nonnull align 8 dereferenceable(36) %0, ptr noundef nonnull align 4 dereferenceable(8) %1, ptr noundef %2, ptr noundef %3, ptr noundef nonnull align 8 dereferenceable(8) %4, ptr noundef %5, ptr noundef %6, ptr noundef nonnull align 8 dereferenceable(8) %7) unnamed_addr #2 align 2 {
  %9 = alloca ptr, align 8
  %10 = alloca ptr, align 8
  %11 = alloca ptr, align 8
  %12 = alloca ptr, align 8
  %13 = alloca ptr, align 8
  %14 = alloca ptr, align 8
  %15 = alloca ptr, align 8
  %16 = alloca ptr, align 8
  %17 = alloca ptr, align 8
  %18 = alloca ptr, align 8
  %19 = alloca ptr, align 8
  %20 = alloca ptr, align 8
  %21 = alloca ptr, align 8
  %22 = alloca ptr, align 8
  %23 = alloca i32, align 4
  store ptr %0, ptr %9, align 8, !tbaa !516
  store ptr %1, ptr %10, align 8, !tbaa !55
  store ptr %2, ptr %11, align 8, !tbaa !21
  store ptr %3, ptr %12, align 8, !tbaa !21
  store ptr %4, ptr %13, align 8, !tbaa !171
  store ptr %5, ptr %14, align 8, !tbaa !9
  store ptr %6, ptr %15, align 8, !tbaa !9
  store ptr %7, ptr %16, align 8, !tbaa !95
  %24 = load ptr, ptr %9, align 8
  call void @llvm.lifetime.start.p0(i64 8, ptr %17) #13
  %25 = load ptr, ptr %11, align 8, !tbaa !21
  store ptr %25, ptr %17, align 8, !tbaa !33
  call void @llvm.lifetime.start.p0(i64 8, ptr %18) #13
  %26 = load ptr, ptr %12, align 8, !tbaa !21
  store ptr %26, ptr %18, align 8, !tbaa !33
  call void @llvm.lifetime.start.p0(i64 8, ptr %19) #13
  %27 = load ptr, ptr %17, align 8, !tbaa !33
  store ptr %27, ptr %19, align 8, !tbaa !33
  call void @llvm.lifetime.start.p0(i64 8, ptr %20) #13
  %28 = load ptr, ptr %14, align 8, !tbaa !9
  store ptr %28, ptr %20, align 8, !tbaa !9
  call void @llvm.lifetime.start.p0(i64 8, ptr %21) #13
  %29 = load ptr, ptr %15, align 8, !tbaa !9
  store ptr %29, ptr %21, align 8, !tbaa !9
  call void @llvm.lifetime.start.p0(i64 8, ptr %22) #13
  %30 = load ptr, ptr %20, align 8, !tbaa !9
  store ptr %30, ptr %22, align 8, !tbaa !9
  call void @llvm.lifetime.start.p0(i64 4, ptr %23) #13
  %31 = load ptr, ptr %17, align 8, !tbaa !33
  %32 = load ptr, ptr %18, align 8, !tbaa !33
  %33 = load ptr, ptr %20, align 8, !tbaa !9
  %34 = load ptr, ptr %21, align 8, !tbaa !9
  %35 = getelementptr inbounds nuw %"class.std::__1::__codecvt_utf8", ptr %24, i32 0, i32 1
  %36 = load i64, ptr %35, align 8, !tbaa !518
  %37 = getelementptr inbounds nuw %"class.std::__1::__codecvt_utf8", ptr %24, i32 0, i32 2
  %38 = load i32, ptr %37, align 8, !tbaa !520
  %39 = call noundef i32 @_ZNSt3__1L12ucs4_to_utf8EPKjS1_RS1_PhS3_RS3_mNS_12codecvt_modeE(ptr noundef %31, ptr noundef %32, ptr noundef nonnull align 8 dereferenceable(8) %19, ptr noundef %33, ptr noundef %34, ptr noundef nonnull align 8 dereferenceable(8) %22, i64 noundef %36, i32 noundef %38)
  store i32 %39, ptr %23, align 4, !tbaa !337
  %40 = load ptr, ptr %11, align 8, !tbaa !21
  %41 = load ptr, ptr %19, align 8, !tbaa !33
  %42 = load ptr, ptr %17, align 8, !tbaa !33
  %43 = ptrtoint ptr %41 to i64
  %44 = ptrtoint ptr %42 to i64
  %45 = sub i64 %43, %44
  %46 = sdiv exact i64 %45, 4
  %47 = getelementptr inbounds i32, ptr %40, i64 %46
  %48 = load ptr, ptr %13, align 8, !tbaa !171
  store ptr %47, ptr %48, align 8, !tbaa !21
  %49 = load ptr, ptr %14, align 8, !tbaa !9
  %50 = load ptr, ptr %22, align 8, !tbaa !9
  %51 = load ptr, ptr %20, align 8, !tbaa !9
  %52 = ptrtoint ptr %50 to i64
  %53 = ptrtoint ptr %51 to i64
  %54 = sub i64 %52, %53
  %55 = getelementptr inbounds i8, ptr %49, i64 %54
  %56 = load ptr, ptr %16, align 8, !tbaa !95
  store ptr %55, ptr %56, align 8, !tbaa !9
  %57 = load i32, ptr %23, align 4, !tbaa !337
  call void @llvm.lifetime.end.p0(i64 4, ptr %23) #13
  call void @llvm.lifetime.end.p0(i64 8, ptr %22) #13
  call void @llvm.lifetime.end.p0(i64 8, ptr %21) #13
  call void @llvm.lifetime.end.p0(i64 8, ptr %20) #13
  call void @llvm.lifetime.end.p0(i64 8, ptr %19) #13
  call void @llvm.lifetime.end.p0(i64 8, ptr %18) #13
  call void @llvm.lifetime.end.p0(i64 8, ptr %17) #13
  ret i32 %57
}